target datalayout = "e-m:e-p270:32:32-p271:32:32-p272:64:64-i64:64-i128:128-f80:128-n8:16:32:64-S128"
target triple = "x86_64-pc-linux-gnu"

%"struct.faiss::InvertedLists.base" = type <{ ptr, i64, i64, i8 }>
%"struct.faiss::ReadOnlyInvertedLists.base" = type { %"struct.faiss::InvertedLists.base" }
%"struct.faiss::SliceInvertedLists" = type { %"struct.faiss::ReadOnlyInvertedLists.base", ptr, i64, i64 }

; Function Attrs: mustprogress uwtable
define noundef i64 @_ZNK5faiss18SliceInvertedLists9list_sizeEm(ptr noundef nonnull align 8 dereferenceable(56) %0, i64 noundef %1) unnamed_addr #2 align 2 {
  %3 = alloca ptr, align 8
  %4 = alloca i64, align 8
  store ptr %0, ptr %3, align 8, !tbaa !43
  store i64 %1, ptr %4, align 8, !tbaa !11
  %5 = load ptr, ptr %3, align 8
  %6 = getelementptr inbounds nuw %"struct.faiss::SliceInvertedLists", ptr %5, i32 0, i32 1
  %7 = load ptr, ptr %6, align 8, !tbaa !45
  %8 = load i64, ptr %4, align 8, !tbaa !11
  %9 = call noundef i64 @_ZN5faiss12_GLOBAL__N_117translate_list_noEPKNS_18SliceInvertedListsEl(ptr noundef %5, i64 noundef %8)
  %10 = load ptr, ptr %7, align 8, !tbaa !17
  %11 = getelementptr inbounds ptr, ptr %10, i64 2
  %12 = load ptr, ptr %11, align 8
  %13 = call noundef i64 %12(ptr noundef nonnull align 8 dereferenceable(25) %7, i64 noundef %9)
  ret i64 %13
}