; Function Attrs: mustprogress uwtable
define noundef i64 @_ZNK5faiss18SliceInvertedLists9list_sizeEm(ptr noundef nonnull readonly align 8 captures(none) dereferenceable(56) %0, i64 noundef %1) unnamed_addr #2 align 2 {
  %3 = getelementptr inbounds nuw i8, ptr %0, i64 32
  %4 = load ptr, ptr %3, align 8, !tbaa !65
  %5 = getelementptr inbounds nuw i8, ptr %0, i64 8
  %.val = load i64, ptr %5, align 8
  %6 = getelementptr inbounds nuw i8, ptr %0, i64 40
  %.val1 = load i64, ptr %6, align 8
  %7 = tail call fastcc noundef i64 @_ZN5faiss12_GLOBAL__N_117translate_list_noEPKNS_18SliceInvertedListsEl(i64 %.val, i64 %.val1, i64 noundef %1)
  %8 = load ptr, ptr %4, align 8, !tbaa !4
  %9 = getelementptr inbounds nuw i8, ptr %8, i64 16
  %10 = load ptr, ptr %9, align 8
  %11 = tail call noundef i64 %10(ptr noundef nonnull align 8 dereferenceable(25) %4, i64 noundef %7)
  ret i64 %11
}